; Function Attrs: mustprogress nofree norecurse nosync nounwind willreturn memory(read, argmem: readwrite, inaccessiblemem: none) uwtable
define hidden noundef ptr @_ZN13basic_factory14get_some_valueEP4sort(ptr noundef nonnull align 8 captures(none) dereferenceable(24) %0, ptr noundef readnone captures(address) %1) unnamed_addr #4 align 2 {
  %3 = getelementptr inbounds nuw i8, ptr %0, i64 8
  %4 = load ptr, ptr %3, align 8, !tbaa !15
  %5 = getelementptr inbounds nuw i8, ptr %4, i64 840
  %6 = load ptr, ptr %5, align 8, !tbaa !16
  %7 = icmp eq ptr %1, %6
  br i1 %7, label %.sink.split, label %16

.sink.split:                                      ; preds = %2
  %8 = getelementptr inbounds nuw i8, ptr %0, i64 20
  %9 = load i32, ptr %8, align 4, !tbaa !13
  %10 = mul i32 %9, 214013
  %11 = add i32 %10, 2531011
  store i32 %11, ptr %8, align 4, !tbaa !13
  %12 = and i32 %11, 65536
  %13 = icmp eq i32 %12, 0
  %. = select i1 %13, i64 864, i64 856
  %14 = getelementptr inbounds nuw i8, ptr %4, i64 %.
  %15 = load ptr, ptr %14, align 8, !tbaa !83
  br label %16

16:                                               ; preds = %.sink.split, %2
  %.0 = phi ptr [ null, %2 ], [ %15, %.sink.split ]
  ret ptr %.0
}